target datalayout = "e-m:e-p270:32:32-p271:32:32-p272:64:64-i64:64-i128:128-f80:128-n8:16:32:64-S128"
target triple = "x86_64-pc-linux-gnu"

%struct.radix_obj_st = type { ptr, ptr, i8 }

@.str.74 = private unnamed_addr constant [38 x i8] c"../openssl/test/radix/quic_bindings.c\00", align 1

; Function Attrs: nounwind uwtable
define internal void @RADIX_OBJ_free(ptr noundef %0) #0 {
  %2 = alloca ptr, align 8
  store ptr %0, ptr %2, align 8, !tbaa !51
  %3 = load ptr, ptr %2, align 8, !tbaa !51
  %4 = icmp eq ptr %3, null
  br i1 %4, label %5, label %6

5:                                                ; preds = %1
  br label %14

6:                                                ; preds = %1
  %7 = load ptr, ptr %2, align 8, !tbaa !51
  %8 = getelementptr inbounds nuw %struct.radix_obj_st, ptr %7, i32 0, i32 1
  %9 = load ptr, ptr %8, align 8, !tbaa !53
  call void @SSL_free(ptr noundef %9)
  %10 = load ptr, ptr %2, align 8, !tbaa !51
  %11 = getelementptr inbounds nuw %struct.radix_obj_st, ptr %10, i32 0, i32 0
  %12 = load ptr, ptr %11, align 8, !tbaa !88
  call void @CRYPTO_free(ptr noundef %12, ptr noundef @.str.74, i32 noundef 134)
  %13 = load ptr, ptr %2, align 8, !tbaa !51
  call void @CRYPTO_free(ptr noundef %13, ptr noundef @.str.74, i32 noundef 135)
  br label %14

14:                                               ; preds = %6, %5
  ret void
}

; Function Attrs: nounwind uwtable
define internal void @cleanup_one(ptr noundef %0) #0 {
  %2 = alloca ptr, align 8
  store ptr %0, ptr %2, align 8, !tbaa !51
  %3 = load ptr, ptr %2, align 8, !tbaa !51
  %4 = getelementptr inbounds nuw %struct.radix_obj_st, ptr %3, i32 0, i32 2
  %5 = load i8, ptr %4, align 8
  %6 = and i8 %5, -2
  %7 = or i8 %6, 0
  store i8 %7, ptr %4, align 8
  %8 = load ptr, ptr %2, align 8, !tbaa !51
  call void @RADIX_OBJ_free(ptr noundef %8)
  ret void
}