; Function Attrs: nounwind uwtable
define internal void @cleanup_one(ptr noundef %0) #1 {
RADIX_OBJ_free.exit:
  %1 = getelementptr inbounds nuw i8, ptr %0, i64 16
  %2 = load i8, ptr %1, align 8
  %3 = and i8 %2, -2
  store i8 %3, ptr %1, align 8
  %4 = getelementptr inbounds nuw i8, ptr %0, i64 8
  %5 = load ptr, ptr %4, align 8, !tbaa !108
  tail call void @SSL_free(ptr noundef %5) #12
  %6 = load ptr, ptr %0, align 8, !tbaa !46
  tail call void @CRYPTO_free(ptr noundef %6, ptr noundef nonnull @.str.74, i32 noundef 134) #12
  tail call void @CRYPTO_free(ptr noundef nonnull %0, ptr noundef nonnull @.str.74, i32 noundef 135) #12
  ret void
}